; ModuleID = '14/1167.c'
source_filename = "14/1167.c"
target datalayout = "e-m:e-p270:32:32-p271:32:32-p272:64:64-i64:64-f80:128-n8:16:32:64-S128"
target triple = "x86_64-pc-linux-gnu"

%struct.student = type { i32, i32, i32, i32, %struct.student* }

@.str = private unnamed_addr constant [3 x i8] c"%d\00", align 1
@n = common dso_local global i32 0, align 4
@.str.1 = private unnamed_addr constant [7 x i8] c"%d%d%d\00", align 1
@.str.2 = private unnamed_addr constant [7 x i8] c"%d %d\0A\00", align 1

; Function Attrs: noinline nounwind uwtable
define dso_local %struct.student* @creat() #0 {
  %1 = alloca %struct.student*, align 8
  %2 = alloca %struct.student*, align 8
  %3 = alloca %struct.student*, align 8
  %4 = alloca i32, align 4
  %5 = call i32 (i8*, ...) @__isoc99_scanf(i8* getelementptr inbounds ([3 x i8], [3 x i8]* @.str, i64 0, i64 0), i32* @n)
  %6 = call noalias i8* @malloc(i64 100) #3
  %7 = bitcast i8* %6 to %struct.student*
  store %struct.student* %7, %struct.student** %3, align 8
  store %struct.student* %7, %struct.student** %2, align 8
  %8 = load %struct.student*, %struct.student** %2, align 8
  %9 = getelementptr inbounds %struct.student, %struct.student* %8, i32 0, i32 0
  %10 = load %struct.student*, %struct.student** %2, align 8
  %11 = getelementptr inbounds %struct.student, %struct.student* %10, i32 0, i32 1
  %12 = load %struct.student*, %struct.student** %2, align 8
  %13 = getelementptr inbounds %struct.student, %struct.student* %12, i32 0, i32 2
  %14 = call i32 (i8*, ...) @__isoc99_scanf(i8* getelementptr inbounds ([7 x i8], [7 x i8]* @.str.1, i64 0, i64 0), i32* %9, i32* %11, i32* %13)
  %15 = load %struct.student*, %struct.student** %2, align 8
  %16 = getelementptr inbounds %struct.student, %struct.student* %15, i32 0, i32 1
  %17 = load i32, i32* %16, align 4
  %18 = load %struct.student*, %struct.student** %2, align 8
  %19 = getelementptr inbounds %struct.student, %struct.student* %18, i32 0, i32 2
  %20 = load i32, i32* %19, align 8
  %21 = add nsw i32 %17, %20
  %22 = load %struct.student*, %struct.student** %2, align 8
  %23 = getelementptr inbounds %struct.student, %struct.student* %22, i32 0, i32 3
  store i32 %21, i32* %23, align 4
  %24 = load %struct.student*, %struct.student** %2, align 8
  store %struct.student* %24, %struct.student** %1, align 8
  store i32 1, i32* %4, align 4
  br label %25

25:                                               ; preds = %52, %0
  %26 = load i32, i32* %4, align 4
  %27 = load i32, i32* @n, align 4
  %28 = icmp slt i32 %26, %27
  br i1 %28, label %29, label %55

29:                                               ; preds = %25
  %30 = call noalias i8* @malloc(i64 100) #3
  %31 = bitcast i8* %30 to %struct.student*
  store %struct.student* %31, %struct.student** %2, align 8
  %32 = load %struct.student*, %struct.student** %2, align 8
  %33 = load %struct.student*, %struct.student** %3, align 8
  %34 = getelementptr inbounds %struct.student, %struct.student* %33, i32 0, i32 4
  store %struct.student* %32, %struct.student** %34, align 8
  %35 = load %struct.student*, %struct.student** %2, align 8
  store %struct.student* %35, %struct.student** %3, align 8
  %36 = load %struct.student*, %struct.student** %2, align 8
  %37 = getelementptr inbounds %struct.student, %struct.student* %36, i32 0, i32 0
  %38 = load %struct.student*, %struct.student** %2, align 8
  %39 = getelementptr inbounds %struct.student, %struct.student* %38, i32 0, i32 1
  %40 = load %struct.student*, %struct.student** %2, align 8
  %41 = getelementptr inbounds %struct.student, %struct.student* %40, i32 0, i32 2
  %42 = call i32 (i8*, ...) @__isoc99_scanf(i8* getelementptr inbounds ([7 x i8], [7 x i8]* @.str.1, i64 0, i64 0), i32* %37, i32* %39, i32* %41)
  %43 = load %struct.student*, %struct.student** %2, align 8
  %44 = getelementptr inbounds %struct.student, %struct.student* %43, i32 0, i32 1
  %45 = load i32, i32* %44, align 4
  %46 = load %struct.student*, %struct.student** %2, align 8
  %47 = getelementptr inbounds %struct.student, %struct.student* %46, i32 0, i32 2
  %48 = load i32, i32* %47, align 8
  %49 = add nsw i32 %45, %48
  %50 = load %struct.student*, %struct.student** %2, align 8
  %51 = getelementptr inbounds %struct.student, %struct.student* %50, i32 0, i32 3
  store i32 %49, i32* %51, align 4
  br label %52

52:                                               ; preds = %29
  %53 = load i32, i32* %4, align 4
  %54 = add nsw i32 %53, 1
  store i32 %54, i32* %4, align 4
  br label %25

55:                                               ; preds = %25
  %56 = load %struct.student*, %struct.student** %3, align 8
  %57 = getelementptr inbounds %struct.student, %struct.student* %56, i32 0, i32 4
  store %struct.student* null, %struct.student** %57, align 8
  %58 = load %struct.student*, %struct.student** %1, align 8
  ret %struct.student* %58
}

declare dso_local i32 @__isoc99_scanf(i8*, ...) #1

; Function Attrs: nounwind
declare dso_local noalias i8* @malloc(i64) #2

; Function Attrs: noinline nounwind uwtable
define dso_local void @compare(%struct.student* %0) #0 {
  %2 = alloca %struct.student*, align 8
  %3 = alloca i32, align 4
  %4 = alloca i32, align 4
  %5 = alloca %struct.student*, align 8
  store %struct.student* %0, %struct.student** %2, align 8
  store i32 1, i32* %4, align 4
  br label %6

6:                                                ; preds = %52, %1
  %7 = load i32, i32* %4, align 4
  %8 = icmp sle i32 %7, 3
  br i1 %8, label %9, label %55

9:                                                ; preds = %6
  store i32 0, i32* %3, align 4
  %10 = load %struct.student*, %struct.student** %2, align 8
  store %struct.student* %10, %struct.student** %5, align 8
  br label %11

11:                                               ; preds = %24, %9
  %12 = load %struct.student*, %struct.student** %5, align 8
  %13 = icmp ne %struct.student* %12, null
  br i1 %13, label %14, label %28

14:                                               ; preds = %11
  %15 = load %struct.student*, %struct.student** %5, align 8
  %16 = getelementptr inbounds %struct.student, %struct.student* %15, i32 0, i32 3
  %17 = load i32, i32* %16, align 4
  %18 = load i32, i32* %3, align 4
  %19 = icmp sgt i32 %17, %18
  br i1 %19, label %20, label %24

20:                                               ; preds = %14
  %21 = load %struct.student*, %struct.student** %5, align 8
  %22 = getelementptr inbounds %struct.student, %struct.student* %21, i32 0, i32 3
  %23 = load i32, i32* %22, align 4
  store i32 %23, i32* %3, align 4
  br label %24

24:                                               ; preds = %20, %14
  %25 = load %struct.student*, %struct.student** %5, align 8
  %26 = getelementptr inbounds %struct.student, %struct.student* %25, i32 0, i32 4
  %27 = load %struct.student*, %struct.student** %26, align 8
  store %struct.student* %27, %struct.student** %5, align 8
  br label %11

28:                                               ; preds = %11
  %29 = load %struct.student*, %struct.student** %2, align 8
  store %struct.student* %29, %struct.student** %5, align 8
  br label %30

30:                                               ; preds = %47, %28
  %31 = load %struct.student*, %struct.student** %5, align 8
  %32 = icmp ne %struct.student* %31, null
  br i1 %32, label %33, label %51

33:                                               ; preds = %30
  %34 = load %struct.student*, %struct.student** %5, align 8
  %35 = getelementptr inbounds %struct.student, %struct.student* %34, i32 0, i32 3
  %36 = load i32, i32* %35, align 4
  %37 = load i32, i32* %3, align 4
  %38 = icmp eq i32 %36, %37
  br i1 %38, label %39, label %47

39:                                               ; preds = %33
  %40 = load %struct.student*, %struct.student** %5, align 8
  %41 = getelementptr inbounds %struct.student, %struct.student* %40, i32 0, i32 0
  %42 = load i32, i32* %41, align 8
  %43 = load i32, i32* %3, align 4
  %44 = call i32 (i8*, ...) @printf(i8* getelementptr inbounds ([7 x i8], [7 x i8]* @.str.2, i64 0, i64 0), i32 %42, i32 %43)
  %45 = load %struct.student*, %struct.student** %5, align 8
  %46 = getelementptr inbounds %struct.student, %struct.student* %45, i32 0, i32 3
  store i32 0, i32* %46, align 4
  br label %51

47:                                               ; preds = %33
  %48 = load %struct.student*, %struct.student** %5, align 8
  %49 = getelementptr inbounds %struct.student, %struct.student* %48, i32 0, i32 4
  %50 = load %struct.student*, %struct.student** %49, align 8
  store %struct.student* %50, %struct.student** %5, align 8
  br label %30

51:                                               ; preds = %39, %30
  br label %52

52:                                               ; preds = %51
  %53 = load i32, i32* %4, align 4
  %54 = add nsw i32 %53, 1
  store i32 %54, i32* %4, align 4
  br label %6

55:                                               ; preds = %6
  ret void
}

declare dso_local i32 @printf(i8*, ...) #1

; Function Attrs: noinline nounwind uwtable
define dso_local i32 @main() #0 {
  %1 = alloca %struct.student*, align 8
  %2 = call %struct.student* @creat()
  store %struct.student* %2, %struct.student** %1, align 8
  %3 = load %struct.student*, %struct.student** %1, align 8
  call void @compare(%struct.student* %3)
  ret i32 0
}


!llvm.module.flags = !{!0}
!llvm.ident = !{!1}

!0 = !{i32 1, !"wchar_size", i32 4}
!1 = !{!"clang version 10.0.0-4ubuntu1 "}
